target datalayout = "e-m:e-p270:32:32-p271:32:32-p272:64:64-i64:64-i128:128-f80:128-n8:16:32:64-S128"
target triple = "x86_64-pc-linux-gnu"

%struct.Curl_llist_element = type { ptr, ptr, ptr }
%struct.curltime = type { i64, i32 }
%struct.ssl_primary_config = type { ptr, ptr, ptr, ptr, ptr, ptr, ptr, ptr, ptr, ptr, ptr, ptr, i8, i32, i8, i8 }
%struct.dynbuf = type { ptr, i64, i64, i64 }
%struct.Curl_llist = type { ptr, ptr, ptr, i64 }
%struct.connectdata = type { %struct.Curl_llist_element, ptr, ptr, i64, ptr, ptr, %struct.hostname, ptr, ptr, %struct.hostname, %struct.proxy_info, %struct.proxy_info, [46 x i8], ptr, ptr, ptr, ptr, ptr, %struct.curltime, %struct.curltime, %struct.curltime, [2 x i32], [2 x ptr], [2 x ptr], [2 x ptr], %struct.ssl_primary_config, %struct.ssl_primary_config, %struct.ConnectBits, ptr, ptr, %struct.curltime, i32, i32, %struct.Curl_llist, ptr, ptr, i32, i32, %struct.ntlmdata, %struct.ntlmdata, %union.anon.2, ptr, ptr, i16, i32, i32, i32, i32, i32, i16, i16, i8, i8, i8, i8, i8, i8, i8 }
%struct.hostname = type { ptr, ptr, ptr, ptr }
%struct.proxy_info = type { %struct.hostname, i32, i8, ptr, ptr }
%struct.ConnectBits = type { i32 }
%struct.ntlmdata = type { i32, [8 x i8], i32, ptr }
%union.anon.2 = type { %struct.ftp_conn }
%struct.ftp_conn = type { %struct.pingpong, ptr, ptr, ptr, ptr, ptr, ptr, ptr, i8, i64, ptr, i64, i32, i32, i32, i32, i32, i16, i8, i8, i8, i8, i8 }
%struct.pingpong = type { i64, i8, ptr, i64, i64, %struct.curltime, i64, %struct.dynbuf, %struct.dynbuf, i64, i64, ptr, ptr }

; Function Attrs: nounwind uwtable
define internal i32 @socket_close(ptr noundef %0, ptr noundef %1, i32 noundef %2, i32 noundef %3) #0 {
  %5 = alloca i32, align 4
  %6 = alloca ptr, align 8
  %7 = alloca ptr, align 8
  %8 = alloca i32, align 4
  %9 = alloca i32, align 4
  %10 = alloca i32, align 4
  store ptr %0, ptr %6, align 8
  store ptr %1, ptr %7, align 8
  store i32 %2, ptr %8, align 4
  store i32 %3, ptr %9, align 4
  %11 = load i32, ptr %8, align 4
  %12 = icmp ne i32 %11, 0
  br i1 %12, label %13, label %35

13:                                               ; preds = %4
  %14 = load ptr, ptr %7, align 8
  %15 = icmp ne ptr %14, null
  br i1 %15, label %16, label %35

16:                                               ; preds = %13
  %17 = load ptr, ptr %7, align 8
  %18 = getelementptr inbounds %struct.connectdata, ptr %17, i32 0, i32 1
  %19 = load ptr, ptr %18, align 8
  %20 = icmp ne ptr %19, null
  br i1 %20, label %21, label %35

21:                                               ; preds = %16
  %22 = load ptr, ptr %6, align 8
  %23 = load i32, ptr %9, align 4
  call void @Curl_multi_closed(ptr noundef %22, i32 noundef %23)
  %24 = load ptr, ptr %6, align 8
  call void @Curl_set_in_callback(ptr noundef %24, i1 noundef zeroext true)
  %25 = load ptr, ptr %7, align 8
  %26 = getelementptr inbounds %struct.connectdata, ptr %25, i32 0, i32 1
  %27 = load ptr, ptr %26, align 8
  %28 = load ptr, ptr %7, align 8
  %29 = getelementptr inbounds %struct.connectdata, ptr %28, i32 0, i32 2
  %30 = load ptr, ptr %29, align 8
  %31 = load i32, ptr %9, align 4
  %32 = call i32 %27(ptr noundef %30, i32 noundef %31)
  store i32 %32, ptr %10, align 4
  %33 = load ptr, ptr %6, align 8
  call void @Curl_set_in_callback(ptr noundef %33, i1 noundef zeroext false)
  %34 = load i32, ptr %10, align 4
  store i32 %34, ptr %5, align 4
  br label %44

35:                                               ; preds = %16, %13, %4
  %36 = load ptr, ptr %7, align 8
  %37 = icmp ne ptr %36, null
  br i1 %37, label %38, label %41

38:                                               ; preds = %35
  %39 = load ptr, ptr %6, align 8
  %40 = load i32, ptr %9, align 4
  call void @Curl_multi_closed(ptr noundef %39, i32 noundef %40)
  br label %41

41:                                               ; preds = %38, %35
  %42 = load i32, ptr %9, align 4
  %43 = call i32 @close(i32 noundef %42)
  store i32 0, ptr %5, align 4
  br label %44

44:                                               ; preds = %41, %21
  %45 = load i32, ptr %5, align 4
  ret i32 %45
}

; Function Attrs: nounwind uwtable
define dso_local i32 @Curl_socket_close(ptr noundef %0, ptr noundef %1, i32 noundef %2) #0 {
  %4 = alloca ptr, align 8
  %5 = alloca ptr, align 8
  %6 = alloca i32, align 4
  store ptr %0, ptr %4, align 8
  store ptr %1, ptr %5, align 8
  store i32 %2, ptr %6, align 4
  %7 = load ptr, ptr %4, align 8
  %8 = load ptr, ptr %5, align 8
  %9 = load i32, ptr %6, align 4
  %10 = call i32 @socket_close(ptr noundef %7, ptr noundef %8, i32 noundef 0, i32 noundef %9)
  ret i32 %10
}