; Function Attrs: nounwind uwtable
define dso_local noundef i32 @Curl_socket_close(ptr noundef %0, ptr noundef readnone %1, i32 noundef %2) local_unnamed_addr #2 {
  %.not = icmp eq ptr %1, null
  br i1 %.not, label %socket_close.exit, label %.thread.i

.thread.i:                                        ; preds = %3
  tail call void @Curl_multi_closed(ptr noundef %0, i32 noundef %2) #13
  br label %socket_close.exit

socket_close.exit:                                ; preds = %3, %.thread.i
  %4 = tail call i32 @close(i32 noundef %2) #13
  ret i32 0
}